target datalayout = "e-m:e-p270:32:32-p271:32:32-p272:64:64-i64:64-i128:128-f80:128-n8:16:32:64-S128"
target triple = "x86_64-pc-linux-gnu"

%struct._ikev2_uat_data_key = type { ptr, i32, ptr, i32 }

; Function Attrs: nounwind null_pointer_is_valid sspstrong uwtable
define internal i32 @ikev2_key_equal_func(ptr noundef %0, ptr noundef %1) #11 {
  %3 = alloca i32, align 4
  %4 = alloca ptr, align 8
  %5 = alloca ptr, align 8
  %6 = alloca ptr, align 8
  %7 = alloca ptr, align 8
  %8 = alloca i32, align 4
  store ptr %0, ptr %4, align 8
  store ptr %1, ptr %5, align 8
  call void @llvm.lifetime.start.p0(i64 8, ptr %6) #16
  %9 = load ptr, ptr %4, align 8
  store ptr %9, ptr %6, align 8
  call void @llvm.lifetime.start.p0(i64 8, ptr %7) #16
  %10 = load ptr, ptr %5, align 8
  store ptr %10, ptr %7, align 8
  %11 = load ptr, ptr %6, align 8
  %12 = getelementptr inbounds nuw %struct._ikev2_uat_data_key, ptr %11, i32 0, i32 1
  %13 = load i32, ptr %12, align 8
  %14 = load ptr, ptr %7, align 8
  %15 = getelementptr inbounds nuw %struct._ikev2_uat_data_key, ptr %14, i32 0, i32 1
  %16 = load i32, ptr %15, align 8
  %17 = icmp ne i32 %13, %16
  br i1 %17, label %18, label %19

18:                                               ; preds = %2
  store i32 0, ptr %3, align 4
  store i32 1, ptr %8, align 4
  br label %57

19:                                               ; preds = %2
  %20 = load ptr, ptr %6, align 8
  %21 = getelementptr inbounds nuw %struct._ikev2_uat_data_key, ptr %20, i32 0, i32 3
  %22 = load i32, ptr %21, align 8
  %23 = load ptr, ptr %7, align 8
  %24 = getelementptr inbounds nuw %struct._ikev2_uat_data_key, ptr %23, i32 0, i32 3
  %25 = load i32, ptr %24, align 8
  %26 = icmp ne i32 %22, %25
  br i1 %26, label %27, label %28

27:                                               ; preds = %19
  store i32 0, ptr %3, align 4
  store i32 1, ptr %8, align 4
  br label %57

28:                                               ; preds = %19
  %29 = load ptr, ptr %6, align 8
  %30 = getelementptr inbounds nuw %struct._ikev2_uat_data_key, ptr %29, i32 0, i32 0
  %31 = load ptr, ptr %30, align 8
  %32 = load ptr, ptr %7, align 8
  %33 = getelementptr inbounds nuw %struct._ikev2_uat_data_key, ptr %32, i32 0, i32 0
  %34 = load ptr, ptr %33, align 8
  %35 = load ptr, ptr %6, align 8
  %36 = getelementptr inbounds nuw %struct._ikev2_uat_data_key, ptr %35, i32 0, i32 1
  %37 = load i32, ptr %36, align 8
  %38 = zext i32 %37 to i64
  %39 = call i32 @memcmp(ptr noundef %31, ptr noundef %34, i64 noundef %38) #18
  %40 = icmp ne i32 %39, 0
  br i1 %40, label %41, label %42

41:                                               ; preds = %28
  store i32 0, ptr %3, align 4
  store i32 1, ptr %8, align 4
  br label %57

42:                                               ; preds = %28
  %43 = load ptr, ptr %6, align 8
  %44 = getelementptr inbounds nuw %struct._ikev2_uat_data_key, ptr %43, i32 0, i32 2
  %45 = load ptr, ptr %44, align 8
  %46 = load ptr, ptr %7, align 8
  %47 = getelementptr inbounds nuw %struct._ikev2_uat_data_key, ptr %46, i32 0, i32 2
  %48 = load ptr, ptr %47, align 8
  %49 = load ptr, ptr %6, align 8
  %50 = getelementptr inbounds nuw %struct._ikev2_uat_data_key, ptr %49, i32 0, i32 3
  %51 = load i32, ptr %50, align 8
  %52 = zext i32 %51 to i64
  %53 = call i32 @memcmp(ptr noundef %45, ptr noundef %48, i64 noundef %52) #18
  %54 = icmp ne i32 %53, 0
  br i1 %54, label %55, label %56

55:                                               ; preds = %42
  store i32 0, ptr %3, align 4
  store i32 1, ptr %8, align 4
  br label %57

56:                                               ; preds = %42
  store i32 1, ptr %3, align 4
  store i32 1, ptr %8, align 4
  br label %57

57:                                               ; preds = %56, %55, %41, %27, %18
  call void @llvm.lifetime.end.p0(i64 8, ptr %7) #16
  call void @llvm.lifetime.end.p0(i64 8, ptr %6) #16
  %58 = load i32, ptr %3, align 4
  ret i32 %58
}