; Function Attrs: mustprogress nofree nounwind null_pointer_is_valid sspstrong willreturn memory(read, inaccessiblemem: none) uwtable
define internal range(i32 0, 2) i32 @ikev2_key_equal_func(ptr noundef readonly captures(none) %0, ptr noundef readonly captures(none) %1) #12 {
  %3 = getelementptr inbounds nuw i8, ptr %0, i64 8
  %4 = load i32, ptr %3, align 8
  %5 = getelementptr inbounds nuw i8, ptr %1, i64 8
  %6 = load i32, ptr %5, align 8
  %.not = icmp eq i32 %4, %6
  br i1 %.not, label %7, label %22

7:                                                ; preds = %2
  %8 = getelementptr inbounds nuw i8, ptr %0, i64 24
  %9 = load i32, ptr %8, align 8
  %10 = getelementptr inbounds nuw i8, ptr %1, i64 24
  %11 = load i32, ptr %10, align 8
  %.not14 = icmp eq i32 %9, %11
  br i1 %.not14, label %12, label %22

12:                                               ; preds = %7
  %13 = load ptr, ptr %0, align 8
  %14 = load ptr, ptr %1, align 8
  %15 = zext i32 %4 to i64
  %bcmp = tail call i32 @bcmp(ptr %13, ptr %14, i64 %15)
  %.not15 = icmp eq i32 %bcmp, 0
  br i1 %.not15, label %16, label %22

16:                                               ; preds = %12
  %17 = getelementptr inbounds nuw i8, ptr %0, i64 16
  %18 = load ptr, ptr %17, align 8
  %19 = getelementptr inbounds nuw i8, ptr %1, i64 16
  %20 = load ptr, ptr %19, align 8
  %21 = zext i32 %9 to i64
  %bcmp16 = tail call i32 @bcmp(ptr %18, ptr %20, i64 %21)
  %.not17 = icmp eq i32 %bcmp16, 0
  %. = zext i1 %.not17 to i32
  br label %22

22:                                               ; preds = %16, %12, %7, %2
  %.0 = phi i32 [ 0, %2 ], [ 0, %7 ], [ 0, %12 ], [ %., %16 ]
  ret i32 %.0
}